target datalayout = "e-m:e-p270:32:32-p271:32:32-p272:64:64-i64:64-i128:128-f80:128-n8:16:32:64-S128"
target triple = "x86_64-pc-linux-gnu"

%"struct.Gluco::Lit" = type { i32 }
%"class.Gluco::vec.5" = type { ptr, i32, i32 }
%"class.Gluco::Clause" = type { %struct.anon, [0 x %union.anon] }
%struct.anon = type { [12 x i8] }
%union.anon = type { %"struct.Gluco::Lit" }

@_ZTIN5Gluco20OutOfMemoryExceptionE = linkonce_odr constant { ptr, ptr } { ptr getelementptr inbounds (ptr, ptr @_ZTVN10__cxxabiv117__class_type_infoE, i64 2), ptr @_ZTSN5Gluco20OutOfMemoryExceptionE }, comdat, align 8

; Function Attrs: mustprogress nounwind uwtable
define linkonce_odr noundef i32 @_ZN5Gluco3vecIjE4imaxEii(i32 noundef %0, i32 noundef %1) #2 comdat align 2 {
  %3 = alloca i32, align 4
  %4 = alloca i32, align 4
  %5 = alloca i32, align 4
  store i32 %0, ptr %3, align 4
  store i32 %1, ptr %4, align 4
  %6 = load i32, ptr %4, align 4
  %7 = load i32, ptr %3, align 4
  %8 = sub nsw i32 %6, %7
  %9 = ashr i32 %8, 31
  store i32 %9, ptr %5, align 4
  %10 = load i32, ptr %3, align 4
  %11 = load i32, ptr %5, align 4
  %12 = and i32 %10, %11
  %13 = load i32, ptr %4, align 4
  %14 = load i32, ptr %5, align 4
  %15 = xor i32 %14, -1
  %16 = and i32 %13, %15
  %17 = add nsw i32 %12, %16
  ret i32 %17
}

; Function Attrs: mustprogress uwtable
define linkonce_odr void @_ZN5Gluco3vecIjE8capacityEi(ptr noundef nonnull align 8 dereferenceable(16) %0, i32 noundef %1) #1 comdat align 2 {
  %3 = alloca ptr, align 8
  %4 = alloca i32, align 4
  %5 = alloca i32, align 4
  store ptr %0, ptr %3, align 8
  store i32 %1, ptr %4, align 4
  %6 = load ptr, ptr %3, align 8
  %7 = getelementptr inbounds %"class.Gluco::vec.5", ptr %6, i32 0, i32 2
  %8 = load i32, ptr %7, align 4
  %9 = load i32, ptr %4, align 4
  %10 = icmp sge i32 %8, %9
  br i1 %10, label %11, label %12

11:                                               ; preds = %2
  br label %48

12:                                               ; preds = %2
  %13 = load i32, ptr %4, align 4
  %14 = getelementptr inbounds %"class.Gluco::vec.5", ptr %6, i32 0, i32 2
  %15 = load i32, ptr %14, align 4
  %16 = sub nsw i32 %13, %15
  %17 = add nsw i32 %16, 1
  %18 = and i32 %17, -2
  %19 = getelementptr inbounds %"class.Gluco::vec.5", ptr %6, i32 0, i32 2
  %20 = load i32, ptr %19, align 4
  %21 = ashr i32 %20, 1
  %22 = add nsw i32 %21, 2
  %23 = and i32 %22, -2
  %24 = call noundef i32 @_ZN5Gluco3vecIjE4imaxEii(i32 noundef %18, i32 noundef %23)
  store i32 %24, ptr %5, align 4
  %25 = load i32, ptr %5, align 4
  %26 = getelementptr inbounds %"class.Gluco::vec.5", ptr %6, i32 0, i32 2
  %27 = load i32, ptr %26, align 4
  %28 = sub nsw i32 2147483647, %27
  %29 = icmp sgt i32 %25, %28
  br i1 %29, label %46, label %30

30:                                               ; preds = %12
  %31 = getelementptr inbounds %"class.Gluco::vec.5", ptr %6, i32 0, i32 0
  %32 = load ptr, ptr %31, align 8
  %33 = load i32, ptr %5, align 4
  %34 = getelementptr inbounds %"class.Gluco::vec.5", ptr %6, i32 0, i32 2
  %35 = load i32, ptr %34, align 4
  %36 = add nsw i32 %35, %33
  store i32 %36, ptr %34, align 4
  %37 = sext i32 %36 to i64
  %38 = mul i64 %37, 4
  %39 = call ptr @realloc(ptr noundef %32, i64 noundef %38) #17
  %40 = getelementptr inbounds %"class.Gluco::vec.5", ptr %6, i32 0, i32 0
  store ptr %39, ptr %40, align 8
  %41 = icmp eq ptr %39, null
  br i1 %41, label %42, label %48

42:                                               ; preds = %30
  %43 = call ptr @__errno_location() #18
  %44 = load i32, ptr %43, align 4
  %45 = icmp eq i32 %44, 12
  br i1 %45, label %46, label %48

46:                                               ; preds = %42, %12
  %47 = call ptr @__cxa_allocate_exception(i64 1) #3
  call void @__cxa_throw(ptr %47, ptr @_ZTIN5Gluco20OutOfMemoryExceptionE, ptr null) #19
  unreachable

48:                                               ; preds = %42, %30, %11
  ret void
}

; Function Attrs: mustprogress nounwind uwtable
define linkonce_odr noundef nonnull align 4 dereferenceable(4) ptr @_ZN5Gluco3vecIjEixEi(ptr noundef nonnull align 8 dereferenceable(16) %0, i32 noundef %1) #2 comdat align 2 {
  %3 = alloca ptr, align 8
  %4 = alloca i32, align 4
  store ptr %0, ptr %3, align 8
  store i32 %1, ptr %4, align 4
  %5 = load ptr, ptr %3, align 8
  %6 = getelementptr inbounds %"class.Gluco::vec.5", ptr %5, i32 0, i32 0
  %7 = load ptr, ptr %6, align 8
  %8 = load i32, ptr %4, align 4
  %9 = sext i32 %8 to i64
  %10 = getelementptr inbounds i32, ptr %7, i64 %9
  ret ptr %10
}

; Function Attrs: mustprogress nounwind uwtable
define linkonce_odr noundef i32 @_ZN5Gluco3varENS_3LitE(i32 %0) #2 comdat {
  %2 = alloca %"struct.Gluco::Lit", align 4
  %3 = getelementptr inbounds %"struct.Gluco::Lit", ptr %2, i32 0, i32 0
  store i32 %0, ptr %3, align 4
  %4 = getelementptr inbounds %"struct.Gluco::Lit", ptr %2, i32 0, i32 0
  %5 = load i32, ptr %4, align 4
  %6 = ashr i32 %5, 1
  ret i32 %6
}

; Function Attrs: mustprogress uwtable
define linkonce_odr void @_ZN5Gluco3vecIjE4pushERKj(ptr noundef nonnull align 8 dereferenceable(16) %0, ptr noundef nonnull align 4 dereferenceable(4) %1) #1 comdat align 2 {
  %3 = alloca ptr, align 8
  %4 = alloca ptr, align 8
  store ptr %0, ptr %3, align 8
  store ptr %1, ptr %4, align 8
  %5 = load ptr, ptr %3, align 8
  %6 = getelementptr inbounds %"class.Gluco::vec.5", ptr %5, i32 0, i32 1
  %7 = load i32, ptr %6, align 8
  %8 = getelementptr inbounds %"class.Gluco::vec.5", ptr %5, i32 0, i32 2
  %9 = load i32, ptr %8, align 4
  %10 = icmp eq i32 %7, %9
  br i1 %10, label %11, label %15

11:                                               ; preds = %2
  %12 = getelementptr inbounds %"class.Gluco::vec.5", ptr %5, i32 0, i32 1
  %13 = load i32, ptr %12, align 8
  %14 = add nsw i32 %13, 1
  call void @_ZN5Gluco3vecIjE8capacityEi(ptr noundef nonnull align 8 dereferenceable(16) %5, i32 noundef %14)
  br label %15

15:                                               ; preds = %11, %2
  %16 = load ptr, ptr %4, align 8
  %17 = load i32, ptr %16, align 4
  %18 = getelementptr inbounds %"class.Gluco::vec.5", ptr %5, i32 0, i32 0
  %19 = load ptr, ptr %18, align 8
  %20 = getelementptr inbounds %"class.Gluco::vec.5", ptr %5, i32 0, i32 1
  %21 = load i32, ptr %20, align 8
  %22 = add nsw i32 %21, 1
  store i32 %22, ptr %20, align 8
  %23 = sext i32 %21 to i64
  %24 = getelementptr inbounds i32, ptr %19, i64 %23
  store i32 %17, ptr %24, align 4
  ret void
}

; Function Attrs: mustprogress nounwind uwtable
define linkonce_odr noundef i32 @_ZN5Gluco5toIntENS_3LitE(i32 %0) #2 comdat {
  %2 = alloca %"struct.Gluco::Lit", align 4
  %3 = getelementptr inbounds %"struct.Gluco::Lit", ptr %2, i32 0, i32 0
  store i32 %0, ptr %3, align 4
  %4 = getelementptr inbounds %"struct.Gluco::Lit", ptr %2, i32 0, i32 0
  %5 = load i32, ptr %4, align 4
  ret i32 %5
}

; Function Attrs: mustprogress nounwind uwtable
define linkonce_odr noundef nonnull align 4 dereferenceable(4) ptr @_ZN5Gluco6ClauseixEi(ptr noundef nonnull align 4 dereferenceable(12) %0, i32 noundef %1) #2 comdat align 2 {
  %3 = alloca ptr, align 8
  %4 = alloca i32, align 4
  store ptr %0, ptr %3, align 8
  store i32 %1, ptr %4, align 4
  %5 = load ptr, ptr %3, align 8
  %6 = getelementptr inbounds %"class.Gluco::Clause", ptr %5, i32 0, i32 1
  %7 = load i32, ptr %4, align 4
  %8 = sext i32 %7 to i64
  %9 = getelementptr inbounds [0 x %union.anon], ptr %6, i64 0, i64 %8
  ret ptr %9
}

; Function Attrs: mustprogress nounwind uwtable
define linkonce_odr noundef i32 @_ZNK5Gluco6Clause4sizeEv(ptr noundef nonnull align 4 dereferenceable(12) %0) #2 comdat align 2 {
  %2 = alloca ptr, align 8
  store ptr %0, ptr %2, align 8
  %3 = load ptr, ptr %2, align 8
  %4 = getelementptr inbounds %"class.Gluco::Clause", ptr %3, i32 0, i32 0
  %5 = load i96, ptr %4, align 4
  %6 = lshr i96 %5, 32
  %7 = and i96 %6, 4294967295
  %8 = trunc i96 %7 to i32
  ret i32 %8
}

; Function Attrs: mustprogress nounwind uwtable
define linkonce_odr noundef i32 @_ZNK5Gluco3vecIjE4sizeEv(ptr noundef nonnull align 8 dereferenceable(16) %0) #2 comdat align 2 {
  %2 = alloca ptr, align 8
  store ptr %0, ptr %2, align 8
  %3 = load ptr, ptr %2, align 8
  %4 = getelementptr inbounds %"class.Gluco::vec.5", ptr %3, i32 0, i32 1
  %5 = load i32, ptr %4, align 8
  ret i32 %5
}

; Function Attrs: mustprogress uwtable
define internal void @_ZL12mkElimClauseRN5Gluco3vecIjEEiRNS_6ClauseE(ptr noundef nonnull align 8 dereferenceable(16) %0, i32 noundef %1, ptr noundef nonnull align 4 dereferenceable(12) %2) #1 {
  %4 = alloca ptr, align 8
  %5 = alloca i32, align 4
  %6 = alloca ptr, align 8
  %7 = alloca i32, align 4
  %8 = alloca i32, align 4
  %9 = alloca i32, align 4
  %10 = alloca i32, align 4
  %11 = alloca %"struct.Gluco::Lit", align 4
  %12 = alloca %"struct.Gluco::Lit", align 4
  %13 = alloca i32, align 4
  %14 = alloca i32, align 4
  store ptr %0, ptr %4, align 8
  store i32 %1, ptr %5, align 4
  store ptr %2, ptr %6, align 8
  %15 = load ptr, ptr %4, align 8
  %16 = call noundef i32 @_ZNK5Gluco3vecIjE4sizeEv(ptr noundef nonnull align 8 dereferenceable(16) %15)
  store i32 %16, ptr %7, align 4
  store i32 -1, ptr %8, align 4
  store i32 0, ptr %9, align 4
  br label %17

17:                                               ; preds = %43, %3
  %18 = load i32, ptr %9, align 4
  %19 = load ptr, ptr %6, align 8
  %20 = call noundef i32 @_ZNK5Gluco6Clause4sizeEv(ptr noundef nonnull align 4 dereferenceable(12) %19)
  %21 = icmp slt i32 %18, %20
  br i1 %21, label %22, label %46

22:                                               ; preds = %17
  %23 = load ptr, ptr %4, align 8
  %24 = load ptr, ptr %6, align 8
  %25 = load i32, ptr %9, align 4
  %26 = call noundef nonnull align 4 dereferenceable(4) ptr @_ZN5Gluco6ClauseixEi(ptr noundef nonnull align 4 dereferenceable(12) %24, i32 noundef %25)
  call void @llvm.memcpy.p0.p0.i64(ptr align 4 %11, ptr align 4 %26, i64 4, i1 false)
  %27 = getelementptr inbounds %"struct.Gluco::Lit", ptr %11, i32 0, i32 0
  %28 = load i32, ptr %27, align 4
  %29 = call noundef i32 @_ZN5Gluco5toIntENS_3LitE(i32 %28)
  store i32 %29, ptr %10, align 4
  call void @_ZN5Gluco3vecIjE4pushERKj(ptr noundef nonnull align 8 dereferenceable(16) %23, ptr noundef nonnull align 4 dereferenceable(4) %10)
  %30 = load ptr, ptr %6, align 8
  %31 = load i32, ptr %9, align 4
  %32 = call noundef nonnull align 4 dereferenceable(4) ptr @_ZN5Gluco6ClauseixEi(ptr noundef nonnull align 4 dereferenceable(12) %30, i32 noundef %31)
  call void @llvm.memcpy.p0.p0.i64(ptr align 4 %12, ptr align 4 %32, i64 4, i1 false)
  %33 = getelementptr inbounds %"struct.Gluco::Lit", ptr %12, i32 0, i32 0
  %34 = load i32, ptr %33, align 4
  %35 = call noundef i32 @_ZN5Gluco3varENS_3LitE(i32 %34)
  %36 = load i32, ptr %5, align 4
  %37 = icmp eq i32 %35, %36
  br i1 %37, label %38, label %42

38:                                               ; preds = %22
  %39 = load i32, ptr %9, align 4
  %40 = load i32, ptr %7, align 4
  %41 = add nsw i32 %39, %40
  store i32 %41, ptr %8, align 4
  br label %42

42:                                               ; preds = %38, %22
  br label %43

43:                                               ; preds = %42
  %44 = load i32, ptr %9, align 4
  %45 = add nsw i32 %44, 1
  store i32 %45, ptr %9, align 4
  br label %17, !llvm.loop !48

46:                                               ; preds = %17
  %47 = load ptr, ptr %4, align 8
  %48 = load i32, ptr %8, align 4
  %49 = call noundef nonnull align 4 dereferenceable(4) ptr @_ZN5Gluco3vecIjEixEi(ptr noundef nonnull align 8 dereferenceable(16) %47, i32 noundef %48)
  %50 = load i32, ptr %49, align 4
  store i32 %50, ptr %13, align 4
  %51 = load ptr, ptr %4, align 8
  %52 = load i32, ptr %7, align 4
  %53 = call noundef nonnull align 4 dereferenceable(4) ptr @_ZN5Gluco3vecIjEixEi(ptr noundef nonnull align 8 dereferenceable(16) %51, i32 noundef %52)
  %54 = load i32, ptr %53, align 4
  %55 = load ptr, ptr %4, align 8
  %56 = load i32, ptr %8, align 4
  %57 = call noundef nonnull align 4 dereferenceable(4) ptr @_ZN5Gluco3vecIjEixEi(ptr noundef nonnull align 8 dereferenceable(16) %55, i32 noundef %56)
  store i32 %54, ptr %57, align 4
  %58 = load i32, ptr %13, align 4
  %59 = load ptr, ptr %4, align 8
  %60 = load i32, ptr %7, align 4
  %61 = call noundef nonnull align 4 dereferenceable(4) ptr @_ZN5Gluco3vecIjEixEi(ptr noundef nonnull align 8 dereferenceable(16) %59, i32 noundef %60)
  store i32 %58, ptr %61, align 4
  %62 = load ptr, ptr %4, align 8
  %63 = load ptr, ptr %6, align 8
  %64 = call noundef i32 @_ZNK5Gluco6Clause4sizeEv(ptr noundef nonnull align 4 dereferenceable(12) %63)
  store i32 %64, ptr %14, align 4
  call void @_ZN5Gluco3vecIjE4pushERKj(ptr noundef nonnull align 8 dereferenceable(16) %62, ptr noundef nonnull align 4 dereferenceable(4) %14)
  ret void
}